
_interrupt:

;O2_control.c,54 :: 		void interrupt(void)
;O2_control.c,64 :: 		if(PIR1.RC1IF == 1)  //If this is a uart1 rx interrupt
	BTFSS       PIR1+0, 5 
	GOTO        L_interrupt0
;O2_control.c,66 :: 		while (UART1_Data_Ready() == 1) {          // if data is received
L_interrupt1:
	CALL        _UART1_Data_Ready+0, 0
	MOVF        R0, 0 
	XORLW       1
	BTFSS       STATUS+0, 2 
	GOTO        L_interrupt2
;O2_control.c,67 :: 		ch = UART1_Read();    // reads text until new line is found
	CALL        _UART1_Read+0, 0
;O2_control.c,68 :: 		cmd[i] = ch;
	MOVLW       interrupt_cmd_L0+0
	ADDWF       interrupt_i_L0+0, 0 
	MOVWF       FSR1 
	MOVLW       hi_addr(interrupt_cmd_L0+0)
	ADDWFC      interrupt_i_L0+1, 0 
	MOVWF       FSR1H 
	MOVF        R0, 0 
	MOVWF       POSTINC1+0 
;O2_control.c,70 :: 		if (cmd[i] == '\n') {
	MOVLW       interrupt_cmd_L0+0
	ADDWF       interrupt_i_L0+0, 0 
	MOVWF       FSR0 
	MOVLW       hi_addr(interrupt_cmd_L0+0)
	ADDWFC      interrupt_i_L0+1, 0 
	MOVWF       FSR0H 
	MOVF        POSTINC0+0, 0 
	XORLW       10
	BTFSS       STATUS+0, 2 
	GOTO        L_interrupt3
;O2_control.c,71 :: 		cmd[i] = 0;
	MOVLW       interrupt_cmd_L0+0
	ADDWF       interrupt_i_L0+0, 0 
	MOVWF       FSR1 
	MOVLW       hi_addr(interrupt_cmd_L0+0)
	ADDWFC      interrupt_i_L0+1, 0 
	MOVWF       FSR1H 
	CLRF        POSTINC1+0 
;O2_control.c,72 :: 		strcpy(inputMsg,cmd);
	MOVLW       _inputMsg+0
	MOVWF       FARG_strcpy_to+0 
	MOVLW       hi_addr(_inputMsg+0)
	MOVWF       FARG_strcpy_to+1 
	MOVLW       interrupt_cmd_L0+0
	MOVWF       FARG_strcpy_from+0 
	MOVLW       hi_addr(interrupt_cmd_L0+0)
	MOVWF       FARG_strcpy_from+1 
	CALL        _strcpy+0, 0
;O2_control.c,73 :: 		i = 0;
	CLRF        interrupt_i_L0+0 
	CLRF        interrupt_i_L0+1 
;O2_control.c,74 :: 		}
	GOTO        L_interrupt4
L_interrupt3:
;O2_control.c,75 :: 		else if (++i>=64) i = 0;
	INFSNZ      interrupt_i_L0+0, 1 
	INCF        interrupt_i_L0+1, 1 
	MOVLW       128
	XORWF       interrupt_i_L0+1, 0 
	MOVWF       R0 
	MOVLW       128
	SUBWF       R0, 0 
	BTFSS       STATUS+0, 2 
	GOTO        L__interrupt21
	MOVLW       64
	SUBWF       interrupt_i_L0+0, 0 
L__interrupt21:
	BTFSS       STATUS+0, 0 
	GOTO        L_interrupt5
	CLRF        interrupt_i_L0+0 
	CLRF        interrupt_i_L0+1 
L_interrupt5:
L_interrupt4:
;O2_control.c,76 :: 		}
	GOTO        L_interrupt1
L_interrupt2:
;O2_control.c,78 :: 		}
L_interrupt0:
;O2_control.c,80 :: 		if(PIR3.RC2IF == 1)    //If this is a uart2 rx interrupt
	BTFSS       PIR3+0, 5 
	GOTO        L_interrupt6
;O2_control.c,82 :: 		while (UART2_Data_Ready() == 1) {          // if data is received
L_interrupt7:
	CALL        _UART2_Data_Ready+0, 0
	MOVF        R0, 0 
	XORLW       1
	BTFSS       STATUS+0, 2 
	GOTO        L_interrupt8
;O2_control.c,83 :: 		us = UART2_Read();    // reads text until new line is found
	CALL        _UART2_Read+0, 0
;O2_control.c,84 :: 		usr[j] = us;
	MOVLW       interrupt_usr_L0+0
	ADDWF       interrupt_j_L0+0, 0 
	MOVWF       FSR1 
	MOVLW       hi_addr(interrupt_usr_L0+0)
	ADDWFC      interrupt_j_L0+1, 0 
	MOVWF       FSR1H 
	MOVF        R0, 0 
	MOVWF       POSTINC1+0 
;O2_control.c,86 :: 		if (usr[j] == '\r') {
	MOVLW       interrupt_usr_L0+0
	ADDWF       interrupt_j_L0+0, 0 
	MOVWF       FSR0 
	MOVLW       hi_addr(interrupt_usr_L0+0)
	ADDWFC      interrupt_j_L0+1, 0 
	MOVWF       FSR0H 
	MOVF        POSTINC0+0, 0 
	XORLW       13
	BTFSS       STATUS+0, 2 
	GOTO        L_interrupt9
;O2_control.c,87 :: 		usr[j] = 0;
	MOVLW       interrupt_usr_L0+0
	ADDWF       interrupt_j_L0+0, 0 
	MOVWF       FSR1 
	MOVLW       hi_addr(interrupt_usr_L0+0)
	ADDWFC      interrupt_j_L0+1, 0 
	MOVWF       FSR1H 
	CLRF        POSTINC1+0 
;O2_control.c,88 :: 		strcpy(usermsg,usr);
	MOVLW       _usermsg+0
	MOVWF       FARG_strcpy_to+0 
	MOVLW       hi_addr(_usermsg+0)
	MOVWF       FARG_strcpy_to+1 
	MOVLW       interrupt_usr_L0+0
	MOVWF       FARG_strcpy_from+0 
	MOVLW       hi_addr(interrupt_usr_L0+0)
	MOVWF       FARG_strcpy_from+1 
	CALL        _strcpy+0, 0
;O2_control.c,89 :: 		j = 0;
	CLRF        interrupt_j_L0+0 
	CLRF        interrupt_j_L0+1 
;O2_control.c,90 :: 		}
	GOTO        L_interrupt10
L_interrupt9:
;O2_control.c,91 :: 		else if (++j>=64) j = 0;
	INFSNZ      interrupt_j_L0+0, 1 
	INCF        interrupt_j_L0+1, 1 
	MOVLW       128
	XORWF       interrupt_j_L0+1, 0 
	MOVWF       R0 
	MOVLW       128
	SUBWF       R0, 0 
	BTFSS       STATUS+0, 2 
	GOTO        L__interrupt22
	MOVLW       64
	SUBWF       interrupt_j_L0+0, 0 
L__interrupt22:
	BTFSS       STATUS+0, 0 
	GOTO        L_interrupt11
	CLRF        interrupt_j_L0+0 
	CLRF        interrupt_j_L0+1 
L_interrupt11:
L_interrupt10:
;O2_control.c,92 :: 		}
	GOTO        L_interrupt7
L_interrupt8:
;O2_control.c,93 :: 		}
L_interrupt6:
;O2_control.c,94 :: 		}
L_end_interrupt:
L__interrupt20:
	RETFIE      1
; end of _interrupt

_main:

;O2_control.c,98 :: 		void main() {
;O2_control.c,102 :: 		ANSELA = 0x0F; // configure PortA as analogue
	MOVLW       15
	MOVWF       ANSELA+0 
;O2_control.c,103 :: 		TRISA = 0xFF; //PortA direction (inputs)
	MOVLW       255
	MOVWF       TRISA+0 
;O2_control.c,104 :: 		ANSELB = 0x00; //configure PortB as digital
	CLRF        ANSELB+0 
;O2_control.c,105 :: 		TRISB = 0x80;   //PortB direction (outputs RB7 is RX)
	MOVLW       128
	MOVWF       TRISB+0 
;O2_control.c,106 :: 		ANSELC = 0X00;  // configure PortC as digital
	CLRF        ANSELC+0 
;O2_control.c,107 :: 		TRISC = 0x00;   //PortC direction
	CLRF        TRISC+0 
;O2_control.c,108 :: 		ANSELD = 0X00;  // configure PortD as digital
	CLRF        ANSELD+0 
;O2_control.c,109 :: 		TRISD = 0x80;   //PortD direction (outputs RD7 is RX)
	MOVLW       128
	MOVWF       TRISD+0 
;O2_control.c,112 :: 		UART1_Init(9600);           // Initialise UART1 module at 9600 bps
	BSF         BAUDCON+0, 3, 0
	CLRF        SPBRGH+0 
	MOVLW       207
	MOVWF       SPBRG+0 
	BSF         TXSTA+0, 2, 0
	CALL        _UART1_Init+0, 0
;O2_control.c,113 :: 		Delay_ms(100);
	MOVLW       2
	MOVWF       R11, 0
	MOVLW       4
	MOVWF       R12, 0
	MOVLW       186
	MOVWF       R13, 0
L_main12:
	DECFSZ      R13, 1, 1
	BRA         L_main12
	DECFSZ      R12, 1, 1
	BRA         L_main12
	DECFSZ      R11, 1, 1
	BRA         L_main12
	NOP
;O2_control.c,114 :: 		UART2_Init(9600);           // Initialise UART1 module at 9600 bps
	BSF         BAUDCON2+0, 3, 0
	CLRF        SPBRGH2+0 
	MOVLW       207
	MOVWF       SPBRG2+0 
	BSF         TXSTA2+0, 2, 0
	CALL        _UART2_Init+0, 0
;O2_control.c,115 :: 		Delay_ms(100);
	MOVLW       2
	MOVWF       R11, 0
	MOVLW       4
	MOVWF       R12, 0
	MOVLW       186
	MOVWF       R13, 0
L_main13:
	DECFSZ      R13, 1, 1
	BRA         L_main13
	DECFSZ      R12, 1, 1
	BRA         L_main13
	DECFSZ      R11, 1, 1
	BRA         L_main13
	NOP
;O2_control.c,119 :: 		PWM1_Init(15000);                   // Initialise PWM1 module at 15KHz
	BCF         T2CON+0, 0, 0
	BCF         T2CON+0, 1, 0
	MOVLW       132
	MOVWF       PR2+0, 0
	CALL        _PWM1_Init+0, 0
;O2_control.c,120 :: 		C1ON_bit = 0;                       // Disable comparator
	BCF         C1ON_bit+0, BitPos(C1ON_bit+0) 
;O2_control.c,121 :: 		valve_duty  = 0;                    // initial value for current_duty  OFF
	CLRF        _valve_duty+0 
	CLRF        _valve_duty+1 
;O2_control.c,122 :: 		PWM1_Start();                       // start PWM1
	CALL        _PWM1_Start+0, 0
;O2_control.c,123 :: 		PWM1_Set_Duty(valve_duty);          // Set current duty for PWM1
	MOVF        _valve_duty+0, 0 
	MOVWF       FARG_PWM1_Set_Duty_new_duty+0 
	CALL        _PWM1_Set_Duty+0, 0
;O2_control.c,127 :: 		PWM2_Init(15000);                   // Initialise PWM1 module at 15KHz
	BCF         T2CON+0, 0, 0
	BCF         T2CON+0, 1, 0
	MOVLW       132
	MOVWF       PR2+0, 0
	CALL        _PWM2_Init+0, 0
;O2_control.c,128 :: 		C1ON_bit = 0;                       // Disable comparator
	BCF         C1ON_bit+0, BitPos(C1ON_bit+0) 
;O2_control.c,129 :: 		pump_duty  = 0;                    // initial value for current_duty  OFF
	CLRF        _pump_duty+0 
;O2_control.c,130 :: 		PWM2_Start();                       // start PWM1
	CALL        _PWM2_Start+0, 0
;O2_control.c,131 :: 		PWM2_Set_Duty(pump_duty);          // Set current duty for PWM1
	MOVF        _pump_duty+0, 0 
	MOVWF       FARG_PWM2_Set_Duty_new_duty+0 
	CALL        _PWM2_Set_Duty+0, 0
;O2_control.c,135 :: 		PIE1.RC1IE = 1;                     //enable interrupt UART1
	BSF         PIE1+0, 5 
;O2_control.c,136 :: 		PIE3.RC2IE = 1;                     //enable interrupt UART2
	BSF         PIE3+0, 5 
;O2_control.c,137 :: 		INTCON.PEIE = 1;                    //PERIPHERAL INTERRUPT ENABLE
	BSF         INTCON+0, 6 
;O2_control.c,138 :: 		INTCON.GIE = 1;                     // Global interrupt enable
	BSF         INTCON+0, 7 
;O2_control.c,140 :: 		for(;;)
L_main14:
;O2_control.c,142 :: 		read_analogue();  //read flow and pressure
	CALL        _read_analogue+0, 0
;O2_control.c,143 :: 		mass_flow = Average(sensor_output,_Avg_Output); // Store and average values for sensor output  !!ADD SENSOR SCALING HERE!!
	MOVF        _sensor_output+0, 0 
	MOVWF       FARG_Average_Data+0 
	MOVF        _sensor_output+1, 0 
	MOVWF       FARG_Average_Data+1 
	MOVF        _sensor_output+2, 0 
	MOVWF       FARG_Average_Data+2 
	MOVF        _sensor_output+3, 0 
	MOVWF       FARG_Average_Data+3 
	MOVLW       __Avg_Output+0
	MOVWF       FARG_Average_Array+0 
	MOVLW       hi_addr(__Avg_Output+0)
	MOVWF       FARG_Average_Array+1 
	CALL        _Average+0, 0
	MOVF        R0, 0 
	MOVWF       _mass_flow+0 
	MOVF        R1, 0 
	MOVWF       _mass_flow+1 
	MOVF        R2, 0 
	MOVWF       _mass_flow+2 
	MOVF        R3, 0 
	MOVWF       _mass_flow+3 
;O2_control.c,144 :: 		FlowValue = (mass_flow * 0.3961) - 206.4; //scale Flow sensor output mlpm
	CALL        _longword2double+0, 0
	MOVLW       159
	MOVWF       R4 
	MOVLW       205
	MOVWF       R5 
	MOVLW       74
	MOVWF       R6 
	MOVLW       125
	MOVWF       R7 
	CALL        _Mul_32x32_FP+0, 0
	MOVLW       102
	MOVWF       R4 
	MOVLW       102
	MOVWF       R5 
	MOVLW       78
	MOVWF       R6 
	MOVLW       134
	MOVWF       R7 
	CALL        _Sub_32x32_FP+0, 0
	MOVF        R0, 0 
	MOVWF       _FlowValue+0 
	MOVF        R1, 0 
	MOVWF       _FlowValue+1 
	MOVF        R2, 0 
	MOVWF       _FlowValue+2 
	MOVF        R3, 0 
	MOVWF       _FlowValue+3 
;O2_control.c,145 :: 		air_flow = Average(sensor_output4, _Avg_Air);
	MOVF        _sensor_output4+0, 0 
	MOVWF       FARG_Average_Data+0 
	MOVF        _sensor_output4+1, 0 
	MOVWF       FARG_Average_Data+1 
	MOVF        _sensor_output4+2, 0 
	MOVWF       FARG_Average_Data+2 
	MOVF        _sensor_output4+3, 0 
	MOVWF       FARG_Average_Data+3 
	MOVLW       __Avg_Air+0
	MOVWF       FARG_Average_Array+0 
	MOVLW       hi_addr(__Avg_Air+0)
	MOVWF       FARG_Average_Array+1 
	CALL        _Average+0, 0
	MOVF        R0, 0 
	MOVWF       _air_flow+0 
	MOVF        R1, 0 
	MOVWF       _air_flow+1 
	MOVF        R2, 0 
	MOVWF       _air_flow+2 
	MOVF        R3, 0 
	MOVWF       _air_flow+3 
;O2_control.c,146 :: 		AirValue = (air_flow * 0.396) - 202.8;//scale flow sensor for air pump
	CALL        _longword2double+0, 0
	MOVLW       131
	MOVWF       R4 
	MOVLW       192
	MOVWF       R5 
	MOVLW       74
	MOVWF       R6 
	MOVLW       125
	MOVWF       R7 
	CALL        _Mul_32x32_FP+0, 0
	MOVLW       205
	MOVWF       R4 
	MOVLW       204
	MOVWF       R5 
	MOVLW       74
	MOVWF       R6 
	MOVLW       134
	MOVWF       R7 
	CALL        _Sub_32x32_FP+0, 0
	MOVF        R0, 0 
	MOVWF       _AirValue+0 
	MOVF        R1, 0 
	MOVWF       _AirValue+1 
	MOVF        R2, 0 
	MOVWF       _AirValue+2 
	MOVF        R3, 0 
	MOVWF       _AirValue+3 
;O2_control.c,147 :: 		pressure0 = Average(sensor_output2, _Avg_Pressure0);
	MOVF        _sensor_output2+0, 0 
	MOVWF       FARG_Average_Data+0 
	MOVF        _sensor_output2+1, 0 
	MOVWF       FARG_Average_Data+1 
	MOVF        _sensor_output2+2, 0 
	MOVWF       FARG_Average_Data+2 
	MOVF        _sensor_output2+3, 0 
	MOVWF       FARG_Average_Data+3 
	MOVLW       __Avg_Pressure0+0
	MOVWF       FARG_Average_Array+0 
	MOVLW       hi_addr(__Avg_Pressure0+0)
	MOVWF       FARG_Average_Array+1 
	CALL        _Average+0, 0
	MOVF        R0, 0 
	MOVWF       _pressure0+0 
	MOVF        R1, 0 
	MOVWF       _pressure0+1 
	MOVF        R2, 0 
	MOVWF       _pressure0+2 
	MOVF        R3, 0 
	MOVWF       _pressure0+3 
;O2_control.c,148 :: 		pressure1 = Average(sensor_output3, _Avg_Pressure1);
	MOVF        _sensor_output3+0, 0 
	MOVWF       FARG_Average_Data+0 
	MOVF        _sensor_output3+1, 0 
	MOVWF       FARG_Average_Data+1 
	MOVF        _sensor_output3+2, 0 
	MOVWF       FARG_Average_Data+2 
	MOVF        _sensor_output3+3, 0 
	MOVWF       FARG_Average_Data+3 
	MOVLW       __Avg_Pressure1+0
	MOVWF       FARG_Average_Array+0 
	MOVLW       hi_addr(__Avg_Pressure1+0)
	MOVWF       FARG_Average_Array+1 
	CALL        _Average+0, 0
	MOVF        R0, 0 
	MOVWF       FLOC__main+0 
	MOVF        R1, 0 
	MOVWF       FLOC__main+1 
	MOVF        R2, 0 
	MOVWF       FLOC__main+2 
	MOVF        R3, 0 
	MOVWF       FLOC__main+3 
	MOVF        FLOC__main+0, 0 
	MOVWF       _pressure1+0 
	MOVF        FLOC__main+1, 0 
	MOVWF       _pressure1+1 
	MOVF        FLOC__main+2, 0 
	MOVWF       _pressure1+2 
	MOVF        FLOC__main+3, 0 
	MOVWF       _pressure1+3 
;O2_control.c,149 :: 		PressureValue0 = (2.09 * pressure0) - 5245.6; //convert from mV to mbar
	MOVF        _pressure0+0, 0 
	MOVWF       R0 
	MOVF        _pressure0+1, 0 
	MOVWF       R1 
	MOVF        _pressure0+2, 0 
	MOVWF       R2 
	MOVF        _pressure0+3, 0 
	MOVWF       R3 
	CALL        _longword2double+0, 0
	MOVLW       143
	MOVWF       R4 
	MOVLW       194
	MOVWF       R5 
	MOVLW       5
	MOVWF       R6 
	MOVLW       128
	MOVWF       R7 
	CALL        _Mul_32x32_FP+0, 0
	MOVLW       205
	MOVWF       R4 
	MOVLW       236
	MOVWF       R5 
	MOVLW       35
	MOVWF       R6 
	MOVLW       139
	MOVWF       R7 
	CALL        _Sub_32x32_FP+0, 0
	MOVF        R0, 0 
	MOVWF       _PressureValue0+0 
	MOVF        R1, 0 
	MOVWF       _PressureValue0+1 
	MOVF        R2, 0 
	MOVWF       _PressureValue0+2 
	MOVF        R3, 0 
	MOVWF       _PressureValue0+3 
;O2_control.c,150 :: 		PressureValue1 = (2.09 * pressure1) - 5245.9;
	MOVF        FLOC__main+0, 0 
	MOVWF       R0 
	MOVF        FLOC__main+1, 0 
	MOVWF       R1 
	MOVF        FLOC__main+2, 0 
	MOVWF       R2 
	MOVF        FLOC__main+3, 0 
	MOVWF       R3 
	CALL        _longword2double+0, 0
	MOVLW       143
	MOVWF       R4 
	MOVLW       194
	MOVWF       R5 
	MOVLW       5
	MOVWF       R6 
	MOVLW       128
	MOVWF       R7 
	CALL        _Mul_32x32_FP+0, 0
	MOVLW       51
	MOVWF       R4 
	MOVLW       239
	MOVWF       R5 
	MOVLW       35
	MOVWF       R6 
	MOVLW       139
	MOVWF       R7 
	CALL        _Sub_32x32_FP+0, 0
	MOVF        R0, 0 
	MOVWF       _PressureValue1+0 
	MOVF        R1, 0 
	MOVWF       _PressureValue1+1 
	MOVF        R2, 0 
	MOVWF       _PressureValue1+2 
	MOVF        R3, 0 
	MOVWF       _PressureValue1+3 
;O2_control.c,157 :: 		O2_controller();//call the O2 control function
	CALL        _O2_controller+0, 0
;O2_control.c,158 :: 		pressure_controller();//call the pressure control function
	CALL        _pressure_controller+0, 0
;O2_control.c,160 :: 		Counter++;   //Increment Counter
	INFSNZ      _counter+0, 1 
	INCF        _counter+1, 1 
;O2_control.c,162 :: 		if(Counter == 50) {  //write data every second
	MOVLW       0
	XORWF       _counter+1, 0 
	BTFSS       STATUS+0, 2 
	GOTO        L__main24
	MOVLW       50
	XORWF       _counter+0, 0 
L__main24:
	BTFSS       STATUS+0, 2 
	GOTO        L_main17
;O2_control.c,163 :: 		Counter = 0;  // Clear Counter
	CLRF        _counter+0 
	CLRF        _counter+1 
;O2_control.c,164 :: 		sprintf(String, "%f, %f, %f, %f, %d\r\n",(float)FlowValue,(float)PressureValue0, (float)PressureValue1, (float)set_flow, (int)pump_duty);
	MOVLW       _String+0
	MOVWF       FARG_sprintf_wh+0 
	MOVLW       hi_addr(_String+0)
	MOVWF       FARG_sprintf_wh+1 
	MOVLW       ?lstr_1_O2_control+0
	MOVWF       FARG_sprintf_f+0 
	MOVLW       hi_addr(?lstr_1_O2_control+0)
	MOVWF       FARG_sprintf_f+1 
	MOVLW       higher_addr(?lstr_1_O2_control+0)
	MOVWF       FARG_sprintf_f+2 
	MOVF        _FlowValue+0, 0 
	MOVWF       FARG_sprintf_wh+5 
	MOVF        _FlowValue+1, 0 
	MOVWF       FARG_sprintf_wh+6 
	MOVF        _FlowValue+2, 0 
	MOVWF       FARG_sprintf_wh+7 
	MOVF        _FlowValue+3, 0 
	MOVWF       FARG_sprintf_wh+8 
	MOVF        _PressureValue0+0, 0 
	MOVWF       FARG_sprintf_wh+9 
	MOVF        _PressureValue0+1, 0 
	MOVWF       FARG_sprintf_wh+10 
	MOVF        _PressureValue0+2, 0 
	MOVWF       FARG_sprintf_wh+11 
	MOVF        _PressureValue0+3, 0 
	MOVWF       FARG_sprintf_wh+12 
	MOVF        _PressureValue1+0, 0 
	MOVWF       FARG_sprintf_wh+13 
	MOVF        _PressureValue1+1, 0 
	MOVWF       FARG_sprintf_wh+14 
	MOVF        _PressureValue1+2, 0 
	MOVWF       FARG_sprintf_wh+15 
	MOVF        _PressureValue1+3, 0 
	MOVWF       FARG_sprintf_wh+16 
	MOVF        _set_flow+0, 0 
	MOVWF       FARG_sprintf_wh+17 
	MOVF        _set_flow+1, 0 
	MOVWF       FARG_sprintf_wh+18 
	MOVF        _set_flow+2, 0 
	MOVWF       FARG_sprintf_wh+19 
	MOVF        _set_flow+3, 0 
	MOVWF       FARG_sprintf_wh+20 
	MOVF        _pump_duty+0, 0 
	MOVWF       FARG_sprintf_wh+21 
	MOVLW       0
	MOVWF       FARG_sprintf_wh+22 
	CALL        _sprintf+0, 0
;O2_control.c,165 :: 		UART2_Write_Text(String);   //
	MOVLW       _String+0
	MOVWF       FARG_UART2_Write_Text_uart_text+0 
	MOVLW       hi_addr(_String+0)
	MOVWF       FARG_UART2_Write_Text_uart_text+1 
	CALL        _UART2_Write_Text+0, 0
;O2_control.c,166 :: 		}
L_main17:
;O2_control.c,168 :: 		Delay_ms(10); // 10ms loop time
	MOVLW       26
	MOVWF       R12, 0
	MOVLW       248
	MOVWF       R13, 0
L_main18:
	DECFSZ      R13, 1, 1
	BRA         L_main18
	DECFSZ      R12, 1, 1
	BRA         L_main18
	NOP
;O2_control.c,169 :: 		}
	GOTO        L_main14
;O2_control.c,170 :: 		}
L_end_main:
	GOTO        $+0
; end of _main
